Certificate:
    Data:
        Version: 3 (0x2)
        Serial Number:
            a1:5e:e6:0c:2e:df:87:e5
        Signature Algorithm: sha256WithRSAEncryption
        Issuer: C = NO, O = , OU = , CN = localhost
        Validity
            Not Before: Apr 27 09:05:01 2022 GMT
            Not After : Apr 24 09:05:01 2032 GMT
        Subject: C = NO, O = , OU = , CN = localhost
        Subject Public Key Info:
            Public Key Algorithm: rsaEncryption
                RSA Public-Key: (2048 bit)
                Modulus:
                    00:82:dd:ff:c0:00:6b:ce:37:72:f7:46:f3:98:1c:
                    88:28:41:14:cc:1f:54:bf:72:bb:10:86:a7:2d:01:
                    2a:1c:75:34:40:dd:a5:7a:0d:0b:95:aa:8f:3c:1c:
                    69:2c:0f:c1:ce:da:9a:f6:73:4b:23:c5:06:83:b3:
                    44:20:5e:aa:12:60:2c:41:34:45:de:9f:dc:95:fc:
                    a2:01:0b:97:ad:f4:50:e4:62:4b:6d:61:d0:97:ff:
                    06:15:ad:01:0c:41:b2:fc:bb:d8:8a:d8:17:a0:7b:
                    85:2c:4b:4e:47:bf:1a:2b:77:05:d7:c6:33:6e:3b:
                    df:c7:5f:60:ea:55:ad:7d:f7:77:9d:2e:64:f4:25:
                    ca:66:e1:10:62:74:a5:d1:ce:1f:ce:ef:be:27:a3:
                    24:1e:74:36:26:2d:49:7f:ff:18:3f:03:ec:9c:3a:
                    03:8a:9e:0c:7a:0e:a0:fe:2b:98:c2:4f:28:6f:6f:
                    12:5e:90:5a:eb:c4:56:5a:b8:89:52:d0:d9:48:2d:
                    c7:f2:4a:ef:ff:ac:39:86:24:58:3f:20:b2:5c:eb:
                    f7:9b:64:b2:46:c2:86:1a:d5:41:31:88:00:d1:0c:
                    fd:d4:7e:3c:de:05:eb:8b:8e:12:28:27:a0:d6:fd:
                    82:26:b4:eb:a6:35:01:d7:4d:b1:2c:6d:df:f6:35:
                    dc:c7
                Exponent: 65537 (0x10001)
        X509v3 extensions:
            X509v3 Subject Key Identifier: 
                54:98:BE:B0:46:BF:26:50:9E:8C:50:78:D6:6F:9F:CD:CD:E8:43:39
    Signature Algorithm: sha256WithRSAEncryption
         64:05:1a:e9:a3:75:1f:2d:93:15:be:91:a1:fe:14:ef:0a:b8:
         be:5d:de:25:24:89:7f:19:32:c6:da:06:ce:32:f7:e6:24:d4:
         7f:28:55:09:11:7b:a6:4c:0d:a3:00:34:79:b5:62:74:57:42:
         ac:d1:f5:ce:02:c8:a2:c9:fa:54:c9:f2:b3:8c:bf:8a:c3:75:
         a9:e6:cb:69:35:95:13:15:84:34:7a:e8:10:38:ed:a5:7d:7a:
         e8:5e:84:bb:f3:d7:86:70:91:01:20:c7:30:22:01:e6:81:7c:
         9a:4f:63:22:d1:eb:4a:8d:12:d1:d1:31:5f:b3:a8:27:11:10:
         a3:d1:3e:5a:09:9f:94:49:d9:ee:39:eb:86:4d:d2:d6:d7:48:
         3d:52:ed:ad:ad:ff:ed:5c:ab:2c:5b:67:dc:ef:80:af:a4:25:
         13:ea:0e:e3:b2:55:71:a1:0f:a0:33:13:ca:d7:ce:83:5a:56:
         39:22:18:d7:a2:f1:24:f2:5a:a0:bd:1e:2a:da:c9:a9:c8:9c:
         8b:7e:cc:7d:8e:d4:f4:69:dd:03:58:f4:7d:a4:5c:ac:ba:05:
         70:2b:51:7a:b5:67:d9:9c:a0:25:9e:0d:18:15:36:4e:11:9a:
         17:20:a5:b5:78:ac:6a:2b:9a:7e:81:b8:02:8d:3b:f9:c7:b7:
         51:55:55:77
-----BEGIN CERTIFICATE-----
MIIDEjCCAfqgAwIBAgIJAKFe5gwu34flMA0GCSqGSIb3DQEBCwUAMDcxCzAJBgNV
BAYTAk5PMQkwBwYDVQQKEwAxCTAHBgNVBAsTADESMBAGA1UEAxMJbG9jYWxob3N0
MB4XDTIyMDQyNzA5MDUwMVoXDTMyMDQyNDA5MDUwMVowNzELMAkGA1UEBhMCTk8x
CTAHBgNVBAoTADEJMAcGA1UECxMAMRIwEAYDVQQDEwlsb2NhbGhvc3QwggEiMA0G
CSqGSIb3DQEBAQUAA4IBDwAwggEKAoIBAQCC3f/AAGvON3L3RvOYHIgoQRTMH1S/
crsQhqctASocdTRA3aV6DQuVqo88HGksD8HO2pr2c0sjxQaDs0QgXqoSYCxBNEXe
n9yV/KIBC5et9FDkYkttYdCX/wYVrQEMQbL8u9iK2Bege4UsS05HvxordwXXxjNu
O9/HX2DqVa1993edLmT0Jcpm4RBidKXRzh/O774noyQedDYmLUl//xg/A+ycOgOK
ngx6DqD+K5jCTyhvbxJekFrrxFZauIlS0NlILcfySu//rDmGJFg/ILJc6/ebZLJG
woYa1UExiADRDP3UfjzeBeuLjhIoJ6DW/YImtOumNQHXTbEsbd/2NdzHAgMBAAGj
ITAfMB0GA1UdDgQWBBRUmL6wRr8mUJ6MUHjWb5/NzehDOTANBgkqhkiG9w0BAQsF
AAOCAQEAZAUa6aN1Hy2TFb6Rof4U7wq4vl3eJSSJfxkyxtoGzjL35iTUfyhVCRF7
pkwNowA0ebVidFdCrNH1zgLIosn6VMnys4y/isN1qebLaTWVExWENHroEDjtpX16
6F6Eu/PXhnCRASDHMCIB5oF8mk9jItHrSo0S0dExX7OoJxEQo9E+WgmflEnZ7jnr
hk3S1tdIPVLtra3/7VyrLFtn3O+Ar6QlE+oO47JVcaEPoDMTytfOg1pWOSIY16Lx
JPJaoL0eKtrJqcici37MfY7U9GndA1j0faRcrLoFcCtRerVn2ZygJZ4NGBU2ThGa
FyCltXisaiuafoG4Ao07+ce3UVVVdw==
-----END CERTIFICATE-----
